target datalayout = "e-m:e-p270:32:32-p271:32:32-p272:64:64-i64:64-i128:128-f80:128-n8:16:32:64-S128"
target triple = "x86_64-pc-linux-gnu"

%"class.icu_77::number::impl::AdoptingSignumModifierStore" = type { ptr, [4 x ptr] }

; Function Attrs: mustprogress nounwind uwtable
define noundef nonnull align 8 dereferenceable(40) ptr @_ZN6icu_776number4impl27AdoptingSignumModifierStoreaSEOS2_(ptr noundef nonnull align 8 dereferenceable(40) %0, ptr noundef nonnull align 8 dereferenceable(40) %1) #0 align 2 {
  %3 = alloca ptr, align 8
  %4 = alloca ptr, align 8
  %5 = alloca i64, align 8
  store ptr %0, ptr %3, align 8, !tbaa !27
  store ptr %1, ptr %4, align 8, !tbaa !27
  %6 = load ptr, ptr %3, align 8
  call void @llvm.lifetime.start.p0(i64 8, ptr %5) #15
  store i64 0, ptr %5, align 8, !tbaa !22
  br label %7

7:                                                ; preds = %24, %2
  %8 = load i64, ptr %5, align 8, !tbaa !22
  %9 = icmp ult i64 %8, 4
  br i1 %9, label %11, label %10

10:                                               ; preds = %7
  call void @llvm.lifetime.end.p0(i64 8, ptr %5) #15
  br label %27

11:                                               ; preds = %7
  %12 = load ptr, ptr %4, align 8, !tbaa !27
  %13 = getelementptr inbounds nuw %"class.icu_77::number::impl::AdoptingSignumModifierStore", ptr %12, i32 0, i32 1
  %14 = load i64, ptr %5, align 8, !tbaa !22
  %15 = getelementptr inbounds nuw [4 x ptr], ptr %13, i64 0, i64 %14
  %16 = load ptr, ptr %15, align 8, !tbaa !3
  %17 = getelementptr inbounds nuw %"class.icu_77::number::impl::AdoptingSignumModifierStore", ptr %6, i32 0, i32 1
  %18 = load i64, ptr %5, align 8, !tbaa !22
  %19 = getelementptr inbounds nuw [4 x ptr], ptr %17, i64 0, i64 %18
  store ptr %16, ptr %19, align 8, !tbaa !3
  %20 = load ptr, ptr %4, align 8, !tbaa !27
  %21 = getelementptr inbounds nuw %"class.icu_77::number::impl::AdoptingSignumModifierStore", ptr %20, i32 0, i32 1
  %22 = load i64, ptr %5, align 8, !tbaa !22
  %23 = getelementptr inbounds nuw [4 x ptr], ptr %21, i64 0, i64 %22
  store ptr null, ptr %23, align 8, !tbaa !3
  br label %24

24:                                               ; preds = %11
  %25 = load i64, ptr %5, align 8, !tbaa !22
  %26 = add i64 %25, 1
  store i64 %26, ptr %5, align 8, !tbaa !22
  br label %7, !llvm.loop !32

27:                                               ; preds = %10
  ret ptr %6
}