; Function Attrs: mustprogress nofree norecurse nosync nounwind memory(argmem: readwrite) uwtable
define noundef nonnull align 8 dereferenceable(40) ptr @_ZN6icu_776number4impl27AdoptingSignumModifierStoreaSEOS2_(ptr noundef nonnull returned writeonly align 8 dereferenceable(40) %0, ptr noundef nonnull align 8 captures(none) dereferenceable(40) %1) local_unnamed_addr #8 align 2 {
  %3 = getelementptr inbounds nuw i8, ptr %1, i64 8
  %4 = getelementptr inbounds nuw i8, ptr %0, i64 8
  br label %6

5:                                                ; preds = %6
  ret ptr %0

6:                                                ; preds = %2, %6
  %.07 = phi i64 [ 0, %2 ], [ %10, %6 ]
  %7 = getelementptr inbounds nuw [4 x ptr], ptr %3, i64 0, i64 %.07
  %8 = load ptr, ptr %7, align 8, !tbaa !18
  %9 = getelementptr inbounds nuw [4 x ptr], ptr %4, i64 0, i64 %.07
  store ptr %8, ptr %9, align 8, !tbaa !18
  store ptr null, ptr %7, align 8, !tbaa !18
  %10 = add nuw nsw i64 %.07, 1
  %exitcond.not = icmp eq i64 %10, 4
  br i1 %exitcond.not, label %5, label %6, !llvm.loop !20
}